target datalayout = "e-m:e-p270:32:32-p271:32:32-p272:64:64-i64:64-i128:128-f80:128-n8:16:32:64-S128"
target triple = "x86_64-pc-linux-gnu"

%"class.casadi::Split" = type { %"class.casadi::MultipleOutput", %"class.std::vector.0", %"class.std::vector.5" }
%"class.casadi::MultipleOutput" = type { %"class.casadi::MXNode" }
%"class.casadi::MXNode" = type { %"class.casadi::SharedObjectInternal", i64, %"class.std::vector", %"class.casadi::Sparsity" }
%"class.casadi::SharedObjectInternal" = type { ptr, i64, ptr }
%"class.std::vector" = type { %"struct.std::_Vector_base" }
%"struct.std::_Vector_base" = type { %"struct.std::_Vector_base<casadi::MX, std::allocator<casadi::MX>>::_Vector_impl" }
%"struct.std::_Vector_base<casadi::MX, std::allocator<casadi::MX>>::_Vector_impl" = type { %"struct.std::_Vector_base<casadi::MX, std::allocator<casadi::MX>>::_Vector_impl_data" }
%"struct.std::_Vector_base<casadi::MX, std::allocator<casadi::MX>>::_Vector_impl_data" = type { ptr, ptr, ptr }
%"class.casadi::Sparsity" = type { %"class.casadi::SharedObject" }
%"class.casadi::SharedObject" = type { ptr }
%"class.std::vector.0" = type { %"struct.std::_Vector_base.1" }
%"struct.std::_Vector_base.1" = type { %"struct.std::_Vector_base<long long, std::allocator<long long>>::_Vector_impl" }
%"struct.std::_Vector_base<long long, std::allocator<long long>>::_Vector_impl" = type { %"struct.std::_Vector_base<long long, std::allocator<long long>>::_Vector_impl_data" }
%"struct.std::_Vector_base<long long, std::allocator<long long>>::_Vector_impl_data" = type { ptr, ptr, ptr }
%"class.std::vector.5" = type { %"struct.std::_Vector_base.6" }
%"struct.std::_Vector_base.6" = type { %"struct.std::_Vector_base<casadi::Sparsity, std::allocator<casadi::Sparsity>>::_Vector_impl" }
%"struct.std::_Vector_base<casadi::Sparsity, std::allocator<casadi::Sparsity>>::_Vector_impl" = type { %"struct.std::_Vector_base<casadi::Sparsity, std::allocator<casadi::Sparsity>>::_Vector_impl_data" }
%"struct.std::_Vector_base<casadi::Sparsity, std::allocator<casadi::Sparsity>>::_Vector_impl_data" = type { ptr, ptr, ptr }

; Function Attrs: mustprogress nounwind uwtable
define linkonce_odr hidden noundef nonnull align 8 dereferenceable(8) ptr @_ZNKSt6vectorIxSaIxEEixEm(ptr noundef nonnull align 8 dereferenceable(24) %0, i64 noundef %1) #5 comdat align 2 {
  %3 = alloca ptr, align 8
  %4 = alloca i64, align 8
  store ptr %0, ptr %3, align 8
  store i64 %1, ptr %4, align 8
  %5 = load ptr, ptr %3, align 8
  %6 = getelementptr inbounds %"struct.std::_Vector_base.1", ptr %5, i32 0, i32 0
  %7 = getelementptr inbounds %"struct.std::_Vector_base<long long, std::allocator<long long>>::_Vector_impl_data", ptr %6, i32 0, i32 0
  %8 = load ptr, ptr %7, align 8
  %9 = load i64, ptr %4, align 8
  %10 = getelementptr inbounds i64, ptr %8, i64 %9
  ret ptr %10
}

; Function Attrs: mustprogress nounwind uwtable
define linkonce_odr hidden noundef i64 @_ZNKSt6vectorIxSaIxEE4sizeEv(ptr noundef nonnull align 8 dereferenceable(24) %0) #5 comdat align 2 {
  %2 = alloca ptr, align 8
  store ptr %0, ptr %2, align 8
  %3 = load ptr, ptr %2, align 8
  %4 = getelementptr inbounds %"struct.std::_Vector_base.1", ptr %3, i32 0, i32 0
  %5 = getelementptr inbounds %"struct.std::_Vector_base<long long, std::allocator<long long>>::_Vector_impl_data", ptr %4, i32 0, i32 1
  %6 = load ptr, ptr %5, align 8
  %7 = getelementptr inbounds %"struct.std::_Vector_base.1", ptr %3, i32 0, i32 0
  %8 = getelementptr inbounds %"struct.std::_Vector_base<long long, std::allocator<long long>>::_Vector_impl_data", ptr %7, i32 0, i32 0
  %9 = load ptr, ptr %8, align 8
  %10 = ptrtoint ptr %6 to i64
  %11 = ptrtoint ptr %9 to i64
  %12 = sub i64 %10, %11
  %13 = sdiv exact i64 %12, 8
  ret i64 %13
}

; Function Attrs: mustprogress uwtable
define noundef i32 @_ZNK6casadi5Split10sp_forwardEPPKyPPyPxS4_(ptr noundef nonnull align 8 dereferenceable(112) %0, ptr noundef %1, ptr noundef %2, ptr noundef %3, ptr noundef %4) unnamed_addr #4 align 2 {
  %6 = alloca ptr, align 8
  %7 = alloca ptr, align 8
  %8 = alloca ptr, align 8
  %9 = alloca ptr, align 8
  %10 = alloca ptr, align 8
  %11 = alloca i64, align 8
  %12 = alloca i64, align 8
  %13 = alloca ptr, align 8
  %14 = alloca i64, align 8
  %15 = alloca ptr, align 8
  %16 = alloca i64, align 8
  store ptr %0, ptr %6, align 8
  store ptr %1, ptr %7, align 8
  store ptr %2, ptr %8, align 8
  store ptr %3, ptr %9, align 8
  store ptr %4, ptr %10, align 8
  %17 = load ptr, ptr %6, align 8
  %18 = getelementptr inbounds %"class.casadi::Split", ptr %17, i32 0, i32 1
  %19 = call noundef i64 @_ZNKSt6vectorIxSaIxEE4sizeEv(ptr noundef nonnull align 8 dereferenceable(24) %18) #3
  %20 = sub i64 %19, 1
  store i64 %20, ptr %11, align 8
  store i64 0, ptr %12, align 8
  br label %21

21:                                               ; preds = %65, %5
  %22 = load i64, ptr %12, align 8
  %23 = load i64, ptr %11, align 8
  %24 = icmp slt i64 %22, %23
  br i1 %24, label %25, label %68

25:                                               ; preds = %21
  %26 = load ptr, ptr %8, align 8
  %27 = load i64, ptr %12, align 8
  %28 = getelementptr inbounds ptr, ptr %26, i64 %27
  %29 = load ptr, ptr %28, align 8
  %30 = icmp ne ptr %29, null
  br i1 %30, label %31, label %64

31:                                               ; preds = %25
  %32 = load ptr, ptr %7, align 8
  %33 = getelementptr inbounds ptr, ptr %32, i64 0
  %34 = load ptr, ptr %33, align 8
  %35 = getelementptr inbounds %"class.casadi::Split", ptr %17, i32 0, i32 1
  %36 = load i64, ptr %12, align 8
  %37 = call noundef nonnull align 8 dereferenceable(8) ptr @_ZNKSt6vectorIxSaIxEEixEm(ptr noundef nonnull align 8 dereferenceable(24) %35, i64 noundef %36) #3
  %38 = load i64, ptr %37, align 8
  %39 = getelementptr inbounds i64, ptr %34, i64 %38
  store ptr %39, ptr %13, align 8
  %40 = load i64, ptr %12, align 8
  %41 = load ptr, ptr %17, align 8
  %42 = getelementptr inbounds ptr, ptr %41, i64 44
  %43 = load ptr, ptr %42, align 8
  %44 = call noundef nonnull align 8 dereferenceable(8) ptr %43(ptr noundef nonnull align 8 dereferenceable(112) %17, i64 noundef %40)
  %45 = call noundef i64 @_ZNK6casadi8Sparsity3nnzEv(ptr noundef nonnull align 8 dereferenceable(8) %44)
  store i64 %45, ptr %14, align 8
  %46 = load ptr, ptr %8, align 8
  %47 = load i64, ptr %12, align 8
  %48 = getelementptr inbounds ptr, ptr %46, i64 %47
  %49 = load ptr, ptr %48, align 8
  store ptr %49, ptr %15, align 8
  store i64 0, ptr %16, align 8
  br label %50

50:                                               ; preds = %60, %31
  %51 = load i64, ptr %16, align 8
  %52 = load i64, ptr %14, align 8
  %53 = icmp slt i64 %51, %52
  br i1 %53, label %54, label %63

54:                                               ; preds = %50
  %55 = load ptr, ptr %13, align 8
  %56 = getelementptr inbounds i64, ptr %55, i32 1
  store ptr %56, ptr %13, align 8
  %57 = load i64, ptr %55, align 8
  %58 = load ptr, ptr %15, align 8
  %59 = getelementptr inbounds i64, ptr %58, i32 1
  store ptr %59, ptr %15, align 8
  store i64 %57, ptr %58, align 8
  br label %60

60:                                               ; preds = %54
  %61 = load i64, ptr %16, align 8
  %62 = add nsw i64 %61, 1
  store i64 %62, ptr %16, align 8
  br label %50, !llvm.loop !7

63:                                               ; preds = %50
  br label %64

64:                                               ; preds = %63, %25
  br label %65

65:                                               ; preds = %64
  %66 = load i64, ptr %12, align 8
  %67 = add nsw i64 %66, 1
  store i64 %67, ptr %12, align 8
  br label %21, !llvm.loop !8

68:                                               ; preds = %21
  ret i32 0
}