; Function Attrs: mustprogress uwtable
define noundef i32 @_ZNK6casadi5Split10sp_forwardEPPKyPPyPxS4_(ptr noundef nonnull align 8 dereferenceable(112) %0, ptr nocapture noundef readonly %1, ptr nocapture noundef readonly %2, ptr nocapture readnone %3, ptr nocapture readnone %4) unnamed_addr #3 align 2 {
  %6 = getelementptr inbounds i8, ptr %0, i64 64
  %7 = getelementptr inbounds i8, ptr %0, i64 72
  %8 = load ptr, ptr %7, align 8
  %9 = load ptr, ptr %6, align 8
  %10 = ptrtoint ptr %8 to i64
  %11 = ptrtoint ptr %9 to i64
  %12 = sub i64 %10, %11
  %13 = ashr exact i64 %12, 3
  %14 = icmp sgt i64 %13, 1
  br i1 %14, label %.lr.ph22.preheader, label %._crit_edge

.lr.ph22.preheader:                               ; preds = %5
  %15 = add nsw i64 %13, -2
  br label %.lr.ph22

.lr.ph22:                                         ; preds = %.lr.ph22.preheader, %.loopexit
  %.01621 = phi i64 [ %35, %.loopexit ], [ 0, %.lr.ph22.preheader ]
  %16 = getelementptr inbounds ptr, ptr %2, i64 %.01621
  %17 = load ptr, ptr %16, align 8
  %.not = icmp eq ptr %17, null
  br i1 %.not, label %.loopexit, label %18

18:                                               ; preds = %.lr.ph22
  %19 = load ptr, ptr %1, align 8
  %20 = load ptr, ptr %6, align 8
  %21 = getelementptr inbounds i64, ptr %20, i64 %.01621
  %22 = load i64, ptr %21, align 8
  %23 = load ptr, ptr %0, align 8
  %24 = getelementptr inbounds i8, ptr %23, i64 352
  %25 = load ptr, ptr %24, align 8
  %26 = tail call noundef nonnull align 8 dereferenceable(8) ptr %25(ptr noundef nonnull align 8 dereferenceable(112) %0, i64 noundef %.01621)
  %27 = tail call noundef i64 @_ZNK6casadi8Sparsity3nnzEv(ptr noundef nonnull align 8 dereferenceable(8) %26)
  %28 = icmp sgt i64 %27, 0
  br i1 %28, label %.lr.ph.preheader, label %.loopexit

.lr.ph.preheader:                                 ; preds = %18
  %29 = load ptr, ptr %16, align 8
  %30 = getelementptr i64, ptr %19, i64 %22
  br label %.lr.ph

.lr.ph:                                           ; preds = %.lr.ph.preheader, %.lr.ph
  %.020 = phi i64 [ %34, %.lr.ph ], [ 0, %.lr.ph.preheader ]
  %.01519 = phi ptr [ %33, %.lr.ph ], [ %29, %.lr.ph.preheader ]
  %.01718 = phi ptr [ %31, %.lr.ph ], [ %30, %.lr.ph.preheader ]
  %31 = getelementptr inbounds i8, ptr %.01718, i64 8
  %32 = load i64, ptr %.01718, align 8
  %33 = getelementptr inbounds i8, ptr %.01519, i64 8
  store i64 %32, ptr %.01519, align 8
  %34 = add nuw nsw i64 %.020, 1
  %exitcond.not = icmp eq i64 %34, %27
  br i1 %exitcond.not, label %.loopexit, label %.lr.ph, !llvm.loop !15

.loopexit:                                        ; preds = %.lr.ph, %18, %.lr.ph22
  %35 = add nuw nsw i64 %.01621, 1
  %exitcond23.not = icmp eq i64 %.01621, %15
  br i1 %exitcond23.not, label %._crit_edge, label %.lr.ph22, !llvm.loop !16

._crit_edge:                                      ; preds = %.loopexit, %5
  ret i32 0
}